target datalayout = "e-m:e-p270:32:32-p271:32:32-p272:64:64-i64:64-i128:128-f80:128-n8:16:32:64-S128"
target triple = "x86_64-unknown-linux-gnu"

%"class.std::__cxx11::basic_string" = type { %"struct.std::__cxx11::basic_string<char>::_Alloc_hider", i64, %union.anon }
%"struct.std::__cxx11::basic_string<char>::_Alloc_hider" = type { ptr }
%union.anon = type { i64, [8 x i8] }
%"class.folly::Range" = type { ptr, ptr }
%"class.proxygen::HTTP1xCodec" = type <{ %"class.proxygen::HTTPCodec", %"class.std::__cxx11::basic_string", ptr, i64, i64, %"struct.proxygen::http_parser", ptr, %"class.std::unique_ptr", %"class.std::unique_ptr", %"class.std::unique_ptr.7", %"class.std::__cxx11::basic_string", %"class.folly::Range", %"class.std::__cxx11::basic_string", %"class.std::__cxx11::basic_string", %"class.std::__cxx11::basic_string", %"class.std::__cxx11::basic_string", %"class.std::__cxx11::basic_string", %"class.std::__cxx11::basic_string", %"struct.proxygen::HTTPHeaderSize", i8, i8, i8, i8, %"struct.std::pair", i32, [4 x i8] }>
%"class.proxygen::HTTPCodec" = type { ptr }
%"struct.proxygen::http_parser" = type { i8, i8, i8, i8, i32, i64, i16, i16, i16, i8, i8, ptr }
%"class.std::unique_ptr" = type { %"struct.std::__uniq_ptr_data" }
%"struct.std::__uniq_ptr_data" = type { %"class.std::__uniq_ptr_impl" }
%"class.std::__uniq_ptr_impl" = type { %"class.std::tuple" }
%"class.std::tuple" = type { %"struct.std::_Tuple_impl" }
%"struct.std::_Tuple_impl" = type { %"struct.std::_Head_base.6" }
%"struct.std::_Head_base.6" = type { ptr }
%"class.std::unique_ptr.7" = type { %"struct.std::__uniq_ptr_data.8" }
%"struct.std::__uniq_ptr_data.8" = type { %"class.std::__uniq_ptr_impl.9" }
%"class.std::__uniq_ptr_impl.9" = type { %"class.std::tuple.10" }
%"class.std::tuple.10" = type { %"struct.std::_Tuple_impl.11" }
%"struct.std::_Tuple_impl.11" = type { %"struct.std::_Head_base.14" }
%"struct.std::_Head_base.14" = type { ptr }
%"struct.proxygen::HTTPHeaderSize" = type { i32, i32, i32 }
%"struct.std::pair" = type { i8, %"class.std::__cxx11::basic_string" }

; Function Attrs: mustprogress nounwind uwtable
define noundef ptr @_ZN8proxygen11HTTP1xCodec17getParserSettingsEv() #5 align 2 {
entry:
  ret ptr @_ZZN8proxygen11HTTP1xCodec17getParserSettingsEvE14parserSettings
}

; Function Attrs: mustprogress uwtable
define void @_ZN8proxygen11HTTP1xCodec12onIngressEOFEv(ptr noundef nonnull align 8 dereferenceable(428) %this) unnamed_addr #4 align 2 {
entry:
  %this.addr = alloca ptr, align 8
  store ptr %this, ptr %this.addr, align 8
  %this1 = load ptr, ptr %this.addr, align 8
  %parserError_ = getelementptr inbounds %"class.proxygen::HTTP1xCodec", ptr %this1, i32 0, i32 24
  %bf.load = load i32, ptr %parserError_, align 8
  %bf.lshr = lshr i32 %bf.load, 5
  %bf.clear = and i32 %bf.lshr, 1
  %bf.cast = trunc i32 %bf.clear to i1
  br i1 %bf.cast, label %if.then, label %if.end

if.then:                                          ; preds = %entry
  br label %if.end51

if.end:                                           ; preds = %entry
  %parserActive_ = getelementptr inbounds %"class.proxygen::HTTP1xCodec", ptr %this1, i32 0, i32 24
  %bf.load2 = load i32, ptr %parserActive_, align 8
  %bf.lshr3 = lshr i32 %bf.load2, 2
  %bf.clear4 = and i32 %bf.lshr3, 1
  %bf.cast5 = trunc i32 %bf.clear4 to i1
  br i1 %bf.cast5, label %if.then6, label %if.end9

if.then6:                                         ; preds = %if.end
  %pendingEOF_ = getelementptr inbounds %"class.proxygen::HTTP1xCodec", ptr %this1, i32 0, i32 24
  %bf.load7 = load i32, ptr %pendingEOF_, align 8
  %bf.clear8 = and i32 %bf.load7, -9
  %bf.set = or i32 %bf.clear8, 8
  store i32 %bf.set, ptr %pendingEOF_, align 8
  br label %if.end51

if.end9:                                          ; preds = %if.end
  %ingressUpgradeComplete_ = getelementptr inbounds %"class.proxygen::HTTP1xCodec", ptr %this1, i32 0, i32 24
  %bf.load10 = load i32, ptr %ingressUpgradeComplete_, align 8
  %bf.lshr11 = lshr i32 %bf.load10, 20
  %bf.clear12 = and i32 %bf.lshr11, 1
  %bf.cast13 = trunc i32 %bf.clear12 to i1
  br i1 %bf.cast13, label %if.then14, label %if.end15

if.then14:                                        ; preds = %if.end9
  %callback_ = getelementptr inbounds %"class.proxygen::HTTP1xCodec", ptr %this1, i32 0, i32 2
  %0 = load ptr, ptr %callback_, align 8
  %ingressTxnID_ = getelementptr inbounds %"class.proxygen::HTTP1xCodec", ptr %this1, i32 0, i32 3
  %1 = load i64, ptr %ingressTxnID_, align 8
  %vtable = load ptr, ptr %0, align 8
  %vfn = getelementptr inbounds ptr, ptr %vtable, i64 8
  %2 = load ptr, ptr %vfn, align 8
  call void %2(ptr noundef nonnull align 8 dereferenceable(8) %0, i64 noundef %1, i1 noundef zeroext false)
  br label %if.end51

if.end15:                                         ; preds = %if.end9
  %parserActive_16 = getelementptr inbounds %"class.proxygen::HTTP1xCodec", ptr %this1, i32 0, i32 24
  %bf.load17 = load i32, ptr %parserActive_16, align 8
  %bf.clear18 = and i32 %bf.load17, -5
  %bf.set19 = or i32 %bf.clear18, 4
  store i32 %bf.set19, ptr %parserActive_16, align 8
  %parser_ = getelementptr inbounds %"class.proxygen::HTTP1xCodec", ptr %this1, i32 0, i32 5
  %call = call noundef ptr @_ZN8proxygen11HTTP1xCodec17getParserSettingsEv()
  %call20 = call noundef i64 @_ZN8proxygen19http_parser_executeEPNS_11http_parserEPKNS_20http_parser_settingsEPKcm(ptr noundef %parser_, ptr noundef %call, ptr noundef null, i64 noundef 0)
  %cmp = icmp ne i64 %call20, 0
  br i1 %cmp, label %if.then21, label %if.else

if.then21:                                        ; preds = %if.end15
  %parserError_22 = getelementptr inbounds %"class.proxygen::HTTP1xCodec", ptr %this1, i32 0, i32 24
  %bf.load23 = load i32, ptr %parserError_22, align 8
  %bf.clear24 = and i32 %bf.load23, -33
  %bf.set25 = or i32 %bf.clear24, 32
  store i32 %bf.set25, ptr %parserError_22, align 8
  br label %if.end40

if.else:                                          ; preds = %if.end15
  %parser_26 = getelementptr inbounds %"class.proxygen::HTTP1xCodec", ptr %this1, i32 0, i32 5
  %http_errno = getelementptr inbounds %"struct.proxygen::http_parser", ptr %parser_26, i32 0, i32 10
  %bf.load27 = load i8, ptr %http_errno, align 1
  %bf.clear28 = and i8 %bf.load27, 127
  %conv = zext i8 %bf.clear28 to i32
  %cmp29 = icmp ne i32 %conv, 0
  br i1 %cmp29, label %land.rhs, label %land.end

land.rhs:                                         ; preds = %if.else
  %parser_30 = getelementptr inbounds %"class.proxygen::HTTP1xCodec", ptr %this1, i32 0, i32 5
  %http_errno31 = getelementptr inbounds %"struct.proxygen::http_parser", ptr %parser_30, i32 0, i32 10
  %bf.load32 = load i8, ptr %http_errno31, align 1
  %bf.clear33 = and i8 %bf.load32, 127
  %conv34 = zext i8 %bf.clear33 to i32
  %cmp35 = icmp ne i32 %conv34, 37
  br label %land.end

land.end:                                         ; preds = %land.rhs, %if.else
  %3 = phi i1 [ false, %if.else ], [ %cmp35, %land.rhs ]
  %parserError_36 = getelementptr inbounds %"class.proxygen::HTTP1xCodec", ptr %this1, i32 0, i32 24
  %4 = zext i1 %3 to i32
  %bf.load37 = load i32, ptr %parserError_36, align 8
  %bf.shl = shl i32 %4, 5
  %bf.clear38 = and i32 %bf.load37, -33
  %bf.set39 = or i32 %bf.clear38, %bf.shl
  store i32 %bf.set39, ptr %parserError_36, align 8
  br label %if.end40

if.end40:                                         ; preds = %land.end, %if.then21
  %parserActive_41 = getelementptr inbounds %"class.proxygen::HTTP1xCodec", ptr %this1, i32 0, i32 24
  %bf.load42 = load i32, ptr %parserActive_41, align 8
  %bf.clear43 = and i32 %bf.load42, -5
  %bf.set44 = or i32 %bf.clear43, 0
  store i32 %bf.set44, ptr %parserActive_41, align 8
  %parserError_45 = getelementptr inbounds %"class.proxygen::HTTP1xCodec", ptr %this1, i32 0, i32 24
  %bf.load46 = load i32, ptr %parserError_45, align 8
  %bf.lshr47 = lshr i32 %bf.load46, 5
  %bf.clear48 = and i32 %bf.lshr47, 1
  %bf.cast49 = trunc i32 %bf.clear48 to i1
  br i1 %bf.cast49, label %if.then50, label %if.end51

if.then50:                                        ; preds = %if.end40
  call void @_ZN8proxygen11HTTP1xCodec13onParserErrorEPKc(ptr noundef nonnull align 8 dereferenceable(428) %this1, ptr noundef null)
  br label %if.end51

if.end51:                                         ; preds = %if.then50, %if.end40, %if.then14, %if.then6, %if.then
  ret void
}