; Function Attrs: mustprogress uwtable
define void @_ZN8proxygen11HTTP1xCodec12onIngressEOFEv(ptr noundef nonnull align 8 dereferenceable(428) %this) unnamed_addr #3 align 2 {
entry:
  %parserError_ = getelementptr inbounds i8, ptr %this, i64 424
  %bf.load = load i32, ptr %parserError_, align 8
  %0 = and i32 %bf.load, 32
  %bf.cast.not = icmp eq i32 %0, 0
  br i1 %bf.cast.not, label %if.end, label %if.end51

if.end:                                           ; preds = %entry
  %1 = and i32 %bf.load, 4
  %bf.cast5.not = icmp eq i32 %1, 0
  br i1 %bf.cast5.not, label %if.end9, label %if.then6

if.then6:                                         ; preds = %if.end
  %bf.set = or i32 %bf.load, 8
  store i32 %bf.set, ptr %parserError_, align 8
  br label %if.end51

if.end9:                                          ; preds = %if.end
  %2 = and i32 %bf.load, 1048576
  %bf.cast13.not = icmp eq i32 %2, 0
  br i1 %bf.cast13.not, label %if.end15, label %if.then14

if.then14:                                        ; preds = %if.end9
  %callback_ = getelementptr inbounds i8, ptr %this, i64 40
  %3 = load ptr, ptr %callback_, align 8
  %ingressTxnID_ = getelementptr inbounds i8, ptr %this, i64 48
  %4 = load i64, ptr %ingressTxnID_, align 8
  %vtable = load ptr, ptr %3, align 8
  %vfn = getelementptr inbounds i8, ptr %vtable, i64 64
  %5 = load ptr, ptr %vfn, align 8
  tail call void %5(ptr noundef nonnull align 8 dereferenceable(8) %3, i64 noundef %4, i1 noundef zeroext false)
  br label %if.end51

if.end15:                                         ; preds = %if.end9
  %bf.set19 = or disjoint i32 %bf.load, 4
  store i32 %bf.set19, ptr %parserError_, align 8
  %parser_ = getelementptr inbounds i8, ptr %this, i64 64
  %call20 = tail call noundef i64 @_ZN8proxygen19http_parser_executeEPNS_11http_parserEPKNS_20http_parser_settingsEPKcm(ptr noundef nonnull %parser_, ptr noundef nonnull @_ZZN8proxygen11HTTP1xCodec17getParserSettingsEvE14parserSettings, ptr noundef null, i64 noundef 0)
  %cmp.not = icmp eq i64 %call20, 0
  br i1 %cmp.not, label %if.else, label %if.then21

if.then21:                                        ; preds = %if.end15
  %bf.load23 = load i32, ptr %parserError_, align 8
  %bf.set25 = or i32 %bf.load23, 32
  br label %if.end40

if.else:                                          ; preds = %if.end15
  %http_errno = getelementptr inbounds i8, ptr %this, i64 87
  %bf.load27 = load i8, ptr %http_errno, align 1
  %bf.clear28 = and i8 %bf.load27, 127
  %cmp29.not = icmp eq i8 %bf.clear28, 0
  %cmp35.not = icmp eq i8 %bf.clear28, 37
  %6 = or i1 %cmp29.not, %cmp35.not
  %bf.shl = select i1 %6, i32 0, i32 32
  %bf.load37 = load i32, ptr %parserError_, align 8
  %bf.clear38 = and i32 %bf.load37, -33
  %bf.set39 = or disjoint i32 %bf.shl, %bf.clear38
  br label %if.end40

if.end40:                                         ; preds = %if.else, %if.then21
  %storemerge = phi i32 [ %bf.set39, %if.else ], [ %bf.set25, %if.then21 ]
  %bf.clear43 = and i32 %storemerge, -5
  store i32 %bf.clear43, ptr %parserError_, align 8
  %7 = and i32 %storemerge, 32
  %bf.cast49.not = icmp eq i32 %7, 0
  br i1 %bf.cast49.not, label %if.end51, label %if.then50

if.then50:                                        ; preds = %if.end40
  tail call void @_ZN8proxygen11HTTP1xCodec13onParserErrorEPKc(ptr noundef nonnull align 8 dereferenceable(428) %this, ptr noundef null)
  br label %if.end51

if.end51:                                         ; preds = %entry, %if.then50, %if.end40, %if.then14, %if.then6
  ret void
}